; Function Attrs: mustprogress nofree norecurse nosync nounwind willreturn memory(read, inaccessiblemem: none) uwtable
define hidden noundef zeroext i1 @_ZNK3sat15model_converter11check_modelERK7svectorI5lbooljE(ptr noundef nonnull readonly align 8 captures(none) dereferenceable(40) %0, ptr noundef nonnull readonly align 8 captures(none) dereferenceable(8) %1) local_unnamed_addr #8 align 2 {
  %3 = load ptr, ptr %0, align 8, !tbaa !3
  %4 = icmp eq ptr %3, null
  br i1 %4, label %._crit_edge36, label %_ZNK6vectorIN3sat15model_converter5entryELb1EjE3endEv.exit

_ZNK6vectorIN3sat15model_converter5entryELb1EjE3endEv.exit: ; preds = %2
  %5 = getelementptr inbounds i8, ptr %3, i64 -4
  %6 = load i32, ptr %5, align 4, !tbaa !9
  %7 = zext i32 %6 to i64
  %8 = getelementptr inbounds nuw %"class.sat::model_converter::entry", ptr %3, i64 %7
  %.not32 = icmp eq i32 %6, 0
  br i1 %.not32, label %._crit_edge36, label %.lr.ph35

.lr.ph35:                                         ; preds = %_ZNK6vectorIN3sat15model_converter5entryELb1EjE3endEv.exit
  %9 = load ptr, ptr %1, align 8
  br label %10

._crit_edge36:                                    ; preds = %._crit_edge, %2, %_ZNK6vectorIN3sat15model_converter5entryELb1EjE3endEv.exit
  %.0.lcssa = phi i1 [ true, %_ZNK6vectorIN3sat15model_converter5entryELb1EjE3endEv.exit ], [ true, %2 ], [ %.1.lcssa, %._crit_edge ]
  ret i1 %.0.lcssa

10:                                               ; preds = %.lr.ph35, %._crit_edge
  %.034 = phi i1 [ true, %.lr.ph35 ], [ %.1.lcssa, %._crit_edge ]
  %.01933 = phi ptr [ %3, %.lr.ph35 ], [ %33, %._crit_edge ]
  %11 = getelementptr inbounds nuw i8, ptr %.01933, i64 8
  %12 = load ptr, ptr %11, align 8, !tbaa !11
  %13 = icmp eq ptr %12, null
  br i1 %13, label %._crit_edge, label %_ZNK6vectorIN3sat7literalELb0EjE3endEv.exit

_ZNK6vectorIN3sat7literalELb0EjE3endEv.exit:      ; preds = %10
  %14 = getelementptr inbounds i8, ptr %12, i64 -4
  %15 = load i32, ptr %14, align 4, !tbaa !9
  %16 = zext i32 %15 to i64
  %17 = getelementptr inbounds nuw %"class.sat::literal", ptr %12, i64 %16
  %.not2428 = icmp eq i32 %15, 0
  br i1 %.not2428, label %._crit_edge, label %.lr.ph

.lr.ph:                                           ; preds = %_ZNK6vectorIN3sat7literalELb0EjE3endEv.exit, %31
  %.131 = phi i1 [ %.3, %31 ], [ %.034, %_ZNK6vectorIN3sat7literalELb0EjE3endEv.exit ]
  %.02030 = phi ptr [ %32, %31 ], [ %12, %_ZNK6vectorIN3sat7literalELb0EjE3endEv.exit ]
  %.02129 = phi i8 [ %.122, %31 ], [ 0, %_ZNK6vectorIN3sat7literalELb0EjE3endEv.exit ]
  %18 = load i32, ptr %.02030, align 4, !tbaa !9
  %19 = icmp eq i32 %18, -2
  %20 = trunc nuw i8 %.02129 to i1
  br i1 %19, label %21, label %22

21:                                               ; preds = %.lr.ph
  %spec.select = select i1 %20, i1 %.131, i1 false
  br label %31

22:                                               ; preds = %.lr.ph
  br i1 %20, label %31, label %23

23:                                               ; preds = %22
  %24 = lshr i32 %18, 1
  %25 = zext nneg i32 %24 to i64
  %26 = getelementptr inbounds nuw i32, ptr %9, i64 %25
  %27 = load i32, ptr %26, align 4, !tbaa !184
  %28 = and i32 %18, 1
  %.not.i = icmp eq i32 %28, 0
  %29 = sub nsw i32 0, %27
  %spec.select.i = select i1 %.not.i, i32 %27, i32 %29
  %30 = icmp eq i32 %spec.select.i, 1
  %spec.select25 = select i1 %30, i8 1, i8 %.02129
  br label %31

31:                                               ; preds = %22, %23, %21
  %.122 = phi i8 [ 0, %21 ], [ %spec.select25, %23 ], [ 1, %22 ]
  %.3 = phi i1 [ %spec.select, %21 ], [ %.131, %23 ], [ %.131, %22 ]
  %32 = getelementptr inbounds nuw i8, ptr %.02030, i64 4
  %.not24 = icmp eq ptr %32, %17
  br i1 %.not24, label %._crit_edge, label %.lr.ph, !llvm.loop !200

._crit_edge:                                      ; preds = %31, %10, %_ZNK6vectorIN3sat7literalELb0EjE3endEv.exit
  %.1.lcssa = phi i1 [ %.034, %_ZNK6vectorIN3sat7literalELb0EjE3endEv.exit ], [ %.034, %10 ], [ %.3, %31 ]
  %33 = getelementptr inbounds nuw i8, ptr %.01933, i64 32
  %.not = icmp eq ptr %33, %8
  br i1 %.not, label %._crit_edge36, label %10
}